target datalayout = "e-m:e-p270:32:32-p271:32:32-p272:64:64-i64:64-i128:128-f80:128-n8:16:32:64-S128"
target triple = "x86_64-pc-linux-gnu"

%struct.lua_State = type { %struct.GCRef, i8, i8, i8, i8, %struct.MRef, %struct.GCRef, ptr, ptr, %struct.MRef, %struct.MRef, %struct.GCRef, %struct.GCRef, ptr, i32 }
%struct.MRef = type { i64 }
%struct.GCRef = type { i64 }
%union.TValue = type { i64 }

; Function Attrs: nounwind uwtable
define internal i32 @lj_cf_rawequal(ptr noundef %0) #3 {
  %2 = alloca ptr, align 8
  %3 = alloca ptr, align 8
  %4 = alloca ptr, align 8
  store ptr %0, ptr %2, align 8, !tbaa !4
  call void @llvm.lifetime.start.p0(i64 8, ptr %3) #11
  %5 = load ptr, ptr %2, align 8, !tbaa !4
  %6 = call ptr @lj_lib_checkany(ptr noundef %5, i32 noundef 1)
  store ptr %6, ptr %3, align 8, !tbaa !17
  call void @llvm.lifetime.start.p0(i64 8, ptr %4) #11
  %7 = load ptr, ptr %2, align 8, !tbaa !4
  %8 = call ptr @lj_lib_checkany(ptr noundef %7, i32 noundef 2)
  store ptr %8, ptr %4, align 8, !tbaa !17
  %9 = load ptr, ptr %3, align 8, !tbaa !17
  %10 = load ptr, ptr %4, align 8, !tbaa !17
  %11 = call i32 @lj_obj_equal(ptr noundef %9, ptr noundef %10)
  %12 = add nsw i32 %11, 1
  %13 = sext i32 %12 to i64
  %14 = shl i64 %13, 47
  %15 = xor i64 %14, -1
  %16 = load ptr, ptr %2, align 8, !tbaa !4
  %17 = getelementptr inbounds nuw %struct.lua_State, ptr %16, i32 0, i32 8
  %18 = load ptr, ptr %17, align 8, !tbaa !9
  %19 = getelementptr inbounds %union.TValue, ptr %18, i64 -1
  store i64 %15, ptr %19, align 8, !tbaa !16
  call void @llvm.lifetime.end.p0(i64 8, ptr %4) #11
  call void @llvm.lifetime.end.p0(i64 8, ptr %3) #11
  ret i32 1
}