; Function Attrs: nounwind uwtable
define internal noundef i32 @lj_cf_rawequal(ptr noundef %0) #2 {
  %2 = tail call ptr @lj_lib_checkany(ptr noundef %0, i32 noundef 1) #11
  %3 = tail call ptr @lj_lib_checkany(ptr noundef %0, i32 noundef 2) #11
  %4 = tail call i32 @lj_obj_equal(ptr noundef %2, ptr noundef %3) #11
  %5 = add nsw i32 %4, 1
  %6 = zext i32 %5 to i64
  %7 = shl i64 %6, 47
  %8 = xor i64 %7, -1
  %9 = getelementptr inbounds nuw i8, ptr %0, i64 40
  %10 = load ptr, ptr %9, align 8, !tbaa !4
  %11 = getelementptr inbounds i8, ptr %10, i64 -8
  store i64 %8, ptr %11, align 8, !tbaa !14
  ret i32 1
}